target datalayout = "e-m:e-p270:32:32-p271:32:32-p272:64:64-i64:64-i128:128-f80:128-n8:16:32:64-S128"
target triple = "x86_64-pc-linux-gnu"

%"class.icu_77::CollationWeights" = type { i32, [5 x i32], [5 x i32], [7 x %"struct.icu_77::CollationWeights::WeightRange"], i32, i32 }
%"struct.icu_77::CollationWeights::WeightRange" = type { i32, i32, i32, i32 }

; Function Attrs: inlinehint mustprogress nounwind uwtable
define internal noundef i32 @_ZN6icu_77L14getWeightTrailEji(i32 noundef %0, i32 noundef %1) #4 {
  %3 = alloca i32, align 4
  %4 = alloca i32, align 4
  store i32 %0, ptr %3, align 4, !tbaa !13
  store i32 %1, ptr %4, align 4, !tbaa !13
  %5 = load i32, ptr %3, align 4, !tbaa !13
  %6 = load i32, ptr %4, align 4, !tbaa !13
  %7 = sub nsw i32 4, %6
  %8 = mul nsw i32 8, %7
  %9 = lshr i32 %5, %8
  %10 = and i32 %9, 255
  ret i32 %10
}

; Function Attrs: inlinehint mustprogress nounwind uwtable
define internal noundef i32 @_ZN6icu_77L13setWeightByteEjij(i32 noundef %0, i32 noundef %1, i32 noundef %2) #4 {
  %4 = alloca i32, align 4
  %5 = alloca i32, align 4
  %6 = alloca i32, align 4
  %7 = alloca i32, align 4
  store i32 %0, ptr %4, align 4, !tbaa !13
  store i32 %1, ptr %5, align 4, !tbaa !13
  store i32 %2, ptr %6, align 4, !tbaa !13
  call void @llvm.lifetime.start.p0(i64 4, ptr %7) #8
  %8 = load i32, ptr %5, align 4, !tbaa !13
  %9 = mul nsw i32 %8, 8
  store i32 %9, ptr %5, align 4, !tbaa !13
  %10 = load i32, ptr %5, align 4, !tbaa !13
  %11 = icmp slt i32 %10, 32
  br i1 %11, label %12, label %15

12:                                               ; preds = %3
  %13 = load i32, ptr %5, align 4, !tbaa !13
  %14 = lshr i32 -1, %13
  store i32 %14, ptr %7, align 4, !tbaa !13
  br label %16

15:                                               ; preds = %3
  store i32 0, ptr %7, align 4, !tbaa !13
  br label %16

16:                                               ; preds = %15, %12
  %17 = load i32, ptr %5, align 4, !tbaa !13
  %18 = sub nsw i32 32, %17
  store i32 %18, ptr %5, align 4, !tbaa !13
  %19 = load i32, ptr %5, align 4, !tbaa !13
  %20 = shl i32 -256, %19
  %21 = load i32, ptr %7, align 4, !tbaa !13
  %22 = or i32 %21, %20
  store i32 %22, ptr %7, align 4, !tbaa !13
  %23 = load i32, ptr %4, align 4, !tbaa !13
  %24 = load i32, ptr %7, align 4, !tbaa !13
  %25 = and i32 %23, %24
  %26 = load i32, ptr %6, align 4, !tbaa !13
  %27 = load i32, ptr %5, align 4, !tbaa !13
  %28 = shl i32 %26, %27
  %29 = or i32 %25, %28
  call void @llvm.lifetime.end.p0(i64 4, ptr %7) #8
  ret i32 %29
}

; Function Attrs: inlinehint mustprogress uwtable
define internal noundef i32 @_ZN6icu_77L13getWeightByteEji(i32 noundef %0, i32 noundef %1) #3 {
  %3 = alloca i32, align 4
  %4 = alloca i32, align 4
  store i32 %0, ptr %3, align 4, !tbaa !13
  store i32 %1, ptr %4, align 4, !tbaa !13
  %5 = load i32, ptr %3, align 4, !tbaa !13
  %6 = load i32, ptr %4, align 4, !tbaa !13
  %7 = call noundef i32 @_ZN6icu_77L14getWeightTrailEji(i32 noundef %5, i32 noundef %6)
  ret i32 %7
}

; Function Attrs: mustprogress uwtable
define noundef i32 @_ZNK6icu_7716CollationWeights9incWeightEji(ptr noundef nonnull align 4 dereferenceable(164) %0, i32 noundef %1, i32 noundef %2) #2 align 2 {
  %4 = alloca i32, align 4
  %5 = alloca ptr, align 8
  %6 = alloca i32, align 4
  %7 = alloca i32, align 4
  %8 = alloca i32, align 4
  %9 = alloca i32, align 4
  store ptr %0, ptr %5, align 8, !tbaa !3
  store i32 %1, ptr %6, align 4, !tbaa !13
  store i32 %2, ptr %7, align 4, !tbaa !13
  %10 = load ptr, ptr %5, align 8
  br label %11

11:                                               ; preds = %42, %3
  call void @llvm.lifetime.start.p0(i64 4, ptr %8) #8
  %12 = load i32, ptr %6, align 4, !tbaa !13
  %13 = load i32, ptr %7, align 4, !tbaa !13
  %14 = call noundef i32 @_ZN6icu_77L13getWeightByteEji(i32 noundef %12, i32 noundef %13)
  store i32 %14, ptr %8, align 4, !tbaa !13
  %15 = load i32, ptr %8, align 4, !tbaa !13
  %16 = getelementptr inbounds nuw %"class.icu_77::CollationWeights", ptr %10, i32 0, i32 2
  %17 = load i32, ptr %7, align 4, !tbaa !13
  %18 = sext i32 %17 to i64
  %19 = getelementptr inbounds [5 x i32], ptr %16, i64 0, i64 %18
  %20 = load i32, ptr %19, align 4, !tbaa !13
  %21 = icmp ult i32 %15, %20
  br i1 %21, label %22, label %28

22:                                               ; preds = %11
  %23 = load i32, ptr %6, align 4, !tbaa !13
  %24 = load i32, ptr %7, align 4, !tbaa !13
  %25 = load i32, ptr %8, align 4, !tbaa !13
  %26 = add i32 %25, 1
  %27 = call noundef i32 @_ZN6icu_77L13setWeightByteEjij(i32 noundef %23, i32 noundef %24, i32 noundef %26)
  store i32 %27, ptr %4, align 4
  store i32 1, ptr %9, align 4
  br label %40

28:                                               ; preds = %11
  %29 = load i32, ptr %6, align 4, !tbaa !13
  %30 = load i32, ptr %7, align 4, !tbaa !13
  %31 = getelementptr inbounds nuw %"class.icu_77::CollationWeights", ptr %10, i32 0, i32 1
  %32 = load i32, ptr %7, align 4, !tbaa !13
  %33 = sext i32 %32 to i64
  %34 = getelementptr inbounds [5 x i32], ptr %31, i64 0, i64 %33
  %35 = load i32, ptr %34, align 4, !tbaa !13
  %36 = call noundef i32 @_ZN6icu_77L13setWeightByteEjij(i32 noundef %29, i32 noundef %30, i32 noundef %35)
  store i32 %36, ptr %6, align 4, !tbaa !13
  %37 = load i32, ptr %7, align 4, !tbaa !13
  %38 = add nsw i32 %37, -1
  store i32 %38, ptr %7, align 4, !tbaa !13
  br label %39

39:                                               ; preds = %28
  store i32 0, ptr %9, align 4
  br label %40

40:                                               ; preds = %39, %22
  call void @llvm.lifetime.end.p0(i64 4, ptr %8) #8
  %41 = load i32, ptr %9, align 4
  switch i32 %41, label %45 [
    i32 0, label %42
    i32 1, label %43
  ]

42:                                               ; preds = %40
  br label %11, !llvm.loop !17

43:                                               ; preds = %40
  %44 = load i32, ptr %4, align 4
  ret i32 %44

45:                                               ; preds = %40
  unreachable
}

; Function Attrs: mustprogress uwtable
define noundef i32 @_ZN6icu_7716CollationWeights10nextWeightEv(ptr noundef nonnull align 4 dereferenceable(164) %0) #2 align 2 {
  %2 = alloca i32, align 4
  %3 = alloca ptr, align 8
  %4 = alloca ptr, align 8
  %5 = alloca i32, align 4
  store ptr %0, ptr %3, align 8, !tbaa !3
  %6 = load ptr, ptr %3, align 8
  %7 = getelementptr inbounds nuw %"class.icu_77::CollationWeights", ptr %6, i32 0, i32 4
  %8 = load i32, ptr %7, align 4, !tbaa !11
  %9 = getelementptr inbounds nuw %"class.icu_77::CollationWeights", ptr %6, i32 0, i32 5
  %10 = load i32, ptr %9, align 4, !tbaa !12
  %11 = icmp sge i32 %8, %10
  br i1 %11, label %12, label %13

12:                                               ; preds = %1
  store i32 -1, ptr %2, align 4
  br label %41

13:                                               ; preds = %1
  call void @llvm.lifetime.start.p0(i64 8, ptr %4) #8
  %14 = getelementptr inbounds nuw %"class.icu_77::CollationWeights", ptr %6, i32 0, i32 3
  %15 = getelementptr inbounds nuw %"class.icu_77::CollationWeights", ptr %6, i32 0, i32 4
  %16 = load i32, ptr %15, align 4, !tbaa !11
  %17 = sext i32 %16 to i64
  %18 = getelementptr inbounds [7 x %"struct.icu_77::CollationWeights::WeightRange"], ptr %14, i64 0, i64 %17
  store ptr %18, ptr %4, align 8, !tbaa !19
  call void @llvm.lifetime.start.p0(i64 4, ptr %5) #8
  %19 = load ptr, ptr %4, align 8, !tbaa !19
  %20 = getelementptr inbounds nuw %"struct.icu_77::CollationWeights::WeightRange", ptr %19, i32 0, i32 0
  %21 = load i32, ptr %20, align 4, !tbaa !23
  store i32 %21, ptr %5, align 4, !tbaa !13
  %22 = load ptr, ptr %4, align 8, !tbaa !19
  %23 = getelementptr inbounds nuw %"struct.icu_77::CollationWeights::WeightRange", ptr %22, i32 0, i32 3
  %24 = load i32, ptr %23, align 4, !tbaa !25
  %25 = add nsw i32 %24, -1
  store i32 %25, ptr %23, align 4, !tbaa !25
  %26 = icmp eq i32 %25, 0
  br i1 %26, label %27, label %31

27:                                               ; preds = %13
  %28 = getelementptr inbounds nuw %"class.icu_77::CollationWeights", ptr %6, i32 0, i32 4
  %29 = load i32, ptr %28, align 4, !tbaa !11
  %30 = add nsw i32 %29, 1
  store i32 %30, ptr %28, align 4, !tbaa !11
  br label %39

31:                                               ; preds = %13
  %32 = load i32, ptr %5, align 4, !tbaa !13
  %33 = load ptr, ptr %4, align 8, !tbaa !19
  %34 = getelementptr inbounds nuw %"struct.icu_77::CollationWeights::WeightRange", ptr %33, i32 0, i32 2
  %35 = load i32, ptr %34, align 4, !tbaa !21
  %36 = call noundef i32 @_ZNK6icu_7716CollationWeights9incWeightEji(ptr noundef nonnull align 4 dereferenceable(164) %6, i32 noundef %32, i32 noundef %35)
  %37 = load ptr, ptr %4, align 8, !tbaa !19
  %38 = getelementptr inbounds nuw %"struct.icu_77::CollationWeights::WeightRange", ptr %37, i32 0, i32 0
  store i32 %36, ptr %38, align 4, !tbaa !23
  br label %39

39:                                               ; preds = %31, %27
  %40 = load i32, ptr %5, align 4, !tbaa !13
  store i32 %40, ptr %2, align 4
  call void @llvm.lifetime.end.p0(i64 4, ptr %5) #8
  call void @llvm.lifetime.end.p0(i64 8, ptr %4) #8
  br label %41

41:                                               ; preds = %39, %12
  %42 = load i32, ptr %2, align 4
  ret i32 %42
}