; Function Attrs: mustprogress nofree norecurse nosync nounwind memory(argmem: readwrite) uwtable
define noundef i32 @_ZN6icu_7716CollationWeights10nextWeightEv(ptr noundef nonnull align 4 captures(none) dereferenceable(164) %0) local_unnamed_addr #5 align 2 {
  %2 = getelementptr inbounds nuw i8, ptr %0, i64 156
  %3 = load i32, ptr %2, align 4, !tbaa !3
  %4 = getelementptr inbounds nuw i8, ptr %0, i64 160
  %5 = load i32, ptr %4, align 4, !tbaa !8
  %.not = icmp slt i32 %3, %5
  br i1 %.not, label %6, label %58

6:                                                ; preds = %1
  %7 = getelementptr inbounds nuw i8, ptr %0, i64 44
  %8 = sext i32 %3 to i64
  %9 = getelementptr inbounds [7 x %"struct.icu_77::CollationWeights::WeightRange"], ptr %7, i64 0, i64 %8
  %10 = load i32, ptr %9, align 4, !tbaa !16
  %11 = getelementptr inbounds nuw i8, ptr %9, i64 12
  %12 = load i32, ptr %11, align 4, !tbaa !18
  %13 = add nsw i32 %12, -1
  store i32 %13, ptr %11, align 4, !tbaa !18
  %14 = icmp eq i32 %13, 0
  br i1 %14, label %15, label %17

15:                                               ; preds = %6
  %16 = add nsw i32 %3, 1
  store i32 %16, ptr %2, align 4, !tbaa !3
  br label %58

17:                                               ; preds = %6
  %18 = getelementptr inbounds nuw i8, ptr %9, i64 8
  %19 = load i32, ptr %18, align 4, !tbaa !14
  %20 = getelementptr inbounds nuw i8, ptr %0, i64 24
  %21 = shl i32 %19, 3
  %22 = sub i32 32, %21
  %23 = lshr i32 %10, %22
  %24 = and i32 %23, 255
  %25 = sext i32 %19 to i64
  %26 = getelementptr inbounds [5 x i32], ptr %20, i64 0, i64 %25
  %27 = load i32, ptr %26, align 4, !tbaa !9
  %28 = icmp ult i32 %24, %27
  br i1 %28, label %_ZNK6icu_7716CollationWeights9incWeightEji.exit, label %.lr.ph.i

.lr.ph.i:                                         ; preds = %17
  %29 = getelementptr inbounds nuw i8, ptr %0, i64 4
  br label %30

30:                                               ; preds = %30, %.lr.ph.i
  %indvars.iv.i = phi i64 [ %25, %.lr.ph.i ], [ %indvars.iv.next.i, %30 ]
  %31 = phi i32 [ %22, %.lr.ph.i ], [ %44, %30 ]
  %32 = phi i32 [ %21, %.lr.ph.i ], [ %43, %30 ]
  %.01627.i = phi i32 [ %10, %.lr.ph.i ], [ %41, %30 ]
  %33 = getelementptr inbounds [5 x i32], ptr %29, i64 0, i64 %indvars.iv.i
  %34 = load i32, ptr %33, align 4, !tbaa !9
  %35 = icmp slt i64 %indvars.iv.i, 4
  %36 = lshr i32 -1, %32
  %.0.i19.i = select i1 %35, i32 %36, i32 0
  %37 = shl i32 -256, %31
  %38 = or i32 %.0.i19.i, %37
  %39 = and i32 %38, %.01627.i
  %40 = shl i32 %34, %31
  %41 = or i32 %39, %40
  %indvars.iv.next.i = add nsw i64 %indvars.iv.i, -1
  %42 = trunc nsw i64 %indvars.iv.next.i to i32
  %43 = shl i32 %42, 3
  %44 = sub i32 32, %43
  %45 = lshr i32 %41, %44
  %46 = and i32 %45, 255
  %47 = getelementptr inbounds [5 x i32], ptr %20, i64 0, i64 %indvars.iv.next.i
  %48 = load i32, ptr %47, align 4, !tbaa !9
  %49 = icmp ult i32 %46, %48
  br i1 %49, label %_ZNK6icu_7716CollationWeights9incWeightEji.exit, label %30

_ZNK6icu_7716CollationWeights9incWeightEji.exit:  ; preds = %30, %17
  %.016.lcssa.i = phi i32 [ %10, %17 ], [ %41, %30 ]
  %.014.lcssa.i = phi i32 [ %19, %17 ], [ %42, %30 ]
  %.lcssa26.i = phi i32 [ %21, %17 ], [ %43, %30 ]
  %.lcssa25.i = phi i32 [ %22, %17 ], [ %44, %30 ]
  %.lcssa.i = phi i32 [ %24, %17 ], [ %46, %30 ]
  %50 = add nuw nsw i32 %.lcssa.i, 1
  %51 = icmp slt i32 %.014.lcssa.i, 4
  %52 = lshr i32 -1, %.lcssa26.i
  %.0.i.i = select i1 %51, i32 %52, i32 0
  %53 = shl i32 -256, %.lcssa25.i
  %54 = or i32 %.0.i.i, %53
  %55 = and i32 %54, %.016.lcssa.i
  %56 = shl i32 %50, %.lcssa25.i
  %57 = or i32 %56, %55
  store i32 %57, ptr %9, align 4, !tbaa !16
  br label %58

58:                                               ; preds = %15, %_ZNK6icu_7716CollationWeights9incWeightEji.exit, %1
  %.0 = phi i32 [ -1, %1 ], [ %10, %_ZNK6icu_7716CollationWeights9incWeightEji.exit ], [ %10, %15 ]
  ret i32 %.0
}